; Function Attrs: mustprogress nofree nounwind willreturn memory(read, inaccessiblemem: none) uwtable
define signext i8 @uhash_compareUnicodeString_75(ptr readonly %key1.coerce, ptr readonly %key2.coerce) local_unnamed_addr #16 {
entry:
  %cmp = icmp eq ptr %key1.coerce, %key2.coerce
  br i1 %cmp, label %return, label %if.end

if.end:                                           ; preds = %entry
  %cmp2 = icmp eq ptr %key1.coerce, null
  %cmp3 = icmp eq ptr %key2.coerce, null
  %or.cond = or i1 %cmp2, %cmp3
  br i1 %or.cond, label %return, label %if.end5

if.end5:                                          ; preds = %if.end
  %fUnion.i.i = getelementptr inbounds i8, ptr %key1.coerce, i64 8
  %0 = load i16, ptr %fUnion.i.i, align 8
  %conv2.i15.i = and i16 %0, 1
  %tobool.not.i = icmp eq i16 %conv2.i15.i, 0
  br i1 %tobool.not.i, label %if.else.i, label %if.then.i

if.then.i:                                        ; preds = %if.end5
  %fUnion.i5.i = getelementptr inbounds i8, ptr %key2.coerce, i64 8
  %1 = load i16, ptr %fUnion.i5.i, align 8
  %conv2.i616.i = and i16 %1, 1
  %tobool3.i = icmp ne i16 %conv2.i616.i, 0
  br label %_ZNK6icu_7513UnicodeStringeqERKS0_.exit

if.else.i:                                        ; preds = %if.end5
  %cmp.i.i.i = icmp slt i16 %0, 0
  %2 = ashr i16 %0, 5
  %shr.i.i.i = sext i16 %2 to i32
  %fLength.i.i = getelementptr inbounds i8, ptr %key1.coerce, i64 12
  %3 = load i32, ptr %fLength.i.i, align 4
  %cond.i.i = select i1 %cmp.i.i.i, i32 %3, i32 %shr.i.i.i
  %fUnion.i.i7.i = getelementptr inbounds i8, ptr %key2.coerce, i64 8
  %4 = load i16, ptr %fUnion.i.i7.i, align 8
  %cmp.i.i8.i = icmp slt i16 %4, 0
  %5 = ashr i16 %4, 5
  %shr.i.i9.i = sext i16 %5 to i32
  %fLength.i10.i = getelementptr inbounds i8, ptr %key2.coerce, i64 12
  %6 = load i32, ptr %fLength.i10.i, align 4
  %cond.i11.i = select i1 %cmp.i.i8.i, i32 %6, i32 %shr.i.i9.i
  %conv2.i1317.i = and i16 %4, 1
  %tobool7.not.i = icmp eq i16 %conv2.i1317.i, 0
  %cmp.i = icmp eq i32 %cond.i.i, %cond.i11.i
  %or.cond.i = and i1 %tobool7.not.i, %cmp.i
  br i1 %or.cond.i, label %land.rhs.i, label %_ZNK6icu_7513UnicodeStringeqERKS0_.exit

land.rhs.i:                                       ; preds = %if.else.i
  %7 = and i16 %0, 2
  %tobool.not.i.i.i = icmp eq i16 %7, 0
  %fBuffer.i.i.i = getelementptr inbounds i8, ptr %key1.coerce, i64 10
  %fArray.i.i.i = getelementptr inbounds i8, ptr %key1.coerce, i64 24
  %8 = load ptr, ptr %fArray.i.i.i, align 8
  %cond.i.i.i = select i1 %tobool.not.i.i.i, ptr %8, ptr %fBuffer.i.i.i
  %9 = and i16 %4, 2
  %tobool.not.i2.i.i = icmp eq i16 %9, 0
  %fBuffer.i3.i.i = getelementptr inbounds i8, ptr %key2.coerce, i64 10
  %fArray.i4.i.i = getelementptr inbounds i8, ptr %key2.coerce, i64 24
  %10 = load ptr, ptr %fArray.i4.i.i, align 8
  %cond.i5.i.i = select i1 %tobool.not.i2.i.i, ptr %10, ptr %fBuffer.i3.i.i
  %mul.i.i = shl nsw i32 %cond.i.i, 1
  %conv.i.i = sext i32 %mul.i.i to i64
  %bcmp.i.i = tail call i32 @bcmp(ptr %cond.i.i.i, ptr %cond.i5.i.i, i64 %conv.i.i)
  %cmp.i.i = icmp eq i32 %bcmp.i.i, 0
  br label %_ZNK6icu_7513UnicodeStringeqERKS0_.exit

_ZNK6icu_7513UnicodeStringeqERKS0_.exit:          ; preds = %if.then.i, %if.else.i, %land.rhs.i
  %retval.0.i = phi i1 [ %tobool3.i, %if.then.i ], [ false, %if.else.i ], [ %cmp.i.i, %land.rhs.i ]
  %conv = zext i1 %retval.0.i to i8
  br label %return

return:                                           ; preds = %if.end, %entry, %_ZNK6icu_7513UnicodeStringeqERKS0_.exit
  %retval.0 = phi i8 [ %conv, %_ZNK6icu_7513UnicodeStringeqERKS0_.exit ], [ 1, %entry ], [ 0, %if.end ]
  ret i8 %retval.0
}